target datalayout = "e-m:e-p270:32:32-p271:32:32-p272:64:64-i64:64-i128:128-f80:128-n8:16:32:64-S128"
target triple = "x86_64-pc-linux-gnu"

%struct.H5F_t = type { ptr, ptr, ptr, ptr, i32, ptr, i8, i8, ptr, i32 }
%struct.H5F_shared_t = type { ptr, ptr, ptr, i8, i32, i32, %struct.H5F_mtab_t, ptr, i8, i8, i64, i32, i32, i64, i64, ptr, ptr, %struct.H5AC_cache_config_t, %struct.H5AC_cache_image_config_t, i8, i8, ptr, i64, i32, i8, i64, i64, double, i64, i64, i64, i32, i32, i32, i8, i32, ptr, ptr, ptr, ptr, i8, i8, i8, i64, i64, ptr, ptr, i32, i64, i8, i32, i8, i64, i8, [13 x i32], [13 x i64], [13 x ptr], i8, i64, i64, [7 x i32], [7 x i32], %struct.H5F_blk_aggr_t, %struct.H5F_blk_aggr_t, i64, i64, %struct.H5F_meta_accum_t, i32, i32, [30 x ptr], %struct.H5F_object_flush_t, i8, ptr }
%struct.H5F_mtab_t = type { i32, i32, ptr }
%struct.H5AC_cache_config_t = type { i32, i8, i8, i8, [1025 x i8], i8, i8, i64, double, i64, i64, i64, i32, double, double, i8, i64, i32, double, double, i32, double, double, i8, i64, i32, i8, double, i64, i32 }
%struct.H5AC_cache_image_config_t = type { i32, i8, i8, i32 }
%struct.H5F_blk_aggr_t = type { i64, i64, i64, i64, i64 }
%struct.H5F_meta_accum_t = type { ptr, i64, i64, i64, i64, i64, i8 }
%struct.H5F_object_flush_t = type { ptr, ptr }

; Function Attrs: nounwind uwtable
define void @H5F_addr_decode_len(i64 noundef %0, ptr noundef %1, ptr noundef %2) #0 {
  %4 = alloca i64, align 8
  %5 = alloca ptr, align 8
  %6 = alloca ptr, align 8
  %7 = alloca i8, align 1
  %8 = alloca i32, align 4
  %9 = alloca i8, align 1
  %10 = alloca i64, align 8
  store i64 %0, ptr %4, align 8
  store ptr %1, ptr %5, align 8
  store ptr %2, ptr %6, align 8
  store i8 1, ptr %7, align 1
  %11 = load ptr, ptr %6, align 8
  store i64 0, ptr %11, align 8
  store i32 0, ptr %8, align 4
  br label %12

12:                                               ; preds = %48, %3
  %13 = load i32, ptr %8, align 4
  %14 = zext i32 %13 to i64
  %15 = load i64, ptr %4, align 8
  %16 = icmp ult i64 %14, %15
  br i1 %16, label %17, label %51

17:                                               ; preds = %12
  %18 = load ptr, ptr %5, align 8
  %19 = load ptr, ptr %18, align 8
  %20 = getelementptr inbounds i8, ptr %19, i32 1
  store ptr %20, ptr %18, align 8
  %21 = load i8, ptr %19, align 1
  store i8 %21, ptr %9, align 1
  %22 = load i8, ptr %9, align 1
  %23 = zext i8 %22 to i32
  %24 = icmp ne i32 %23, 255
  br i1 %24, label %25, label %26

25:                                               ; preds = %17
  store i8 0, ptr %7, align 1
  br label %26

26:                                               ; preds = %25, %17
  %27 = load i32, ptr %8, align 4
  %28 = zext i32 %27 to i64
  %29 = icmp ult i64 %28, 8
  br i1 %29, label %30, label %42

30:                                               ; preds = %26
  %31 = load i8, ptr %9, align 1
  %32 = zext i8 %31 to i64
  store i64 %32, ptr %10, align 8
  %33 = load i32, ptr %8, align 4
  %34 = mul i32 %33, 8
  %35 = load i64, ptr %10, align 8
  %36 = zext i32 %34 to i64
  %37 = shl i64 %35, %36
  store i64 %37, ptr %10, align 8
  %38 = load i64, ptr %10, align 8
  %39 = load ptr, ptr %6, align 8
  %40 = load i64, ptr %39, align 8
  %41 = or i64 %40, %38
  store i64 %41, ptr %39, align 8
  br label %47

42:                                               ; preds = %26
  %43 = load i8, ptr %7, align 1
  %44 = trunc i8 %43 to i1
  br i1 %44, label %46, label %45

45:                                               ; preds = %42
  br label %46

46:                                               ; preds = %45, %42
  br label %47

47:                                               ; preds = %46, %30
  br label %48

48:                                               ; preds = %47
  %49 = load i32, ptr %8, align 4
  %50 = add i32 %49, 1
  store i32 %50, ptr %8, align 4
  br label %12

51:                                               ; preds = %12
  %52 = load i8, ptr %7, align 1
  %53 = trunc i8 %52 to i1
  br i1 %53, label %54, label %56

54:                                               ; preds = %51
  %55 = load ptr, ptr %6, align 8
  store i64 -1, ptr %55, align 8
  br label %56

56:                                               ; preds = %54, %51
  ret void
}

; Function Attrs: nounwind uwtable
define void @H5F_addr_decode(ptr noundef %0, ptr noundef %1, ptr noundef %2) #0 {
  %4 = alloca ptr, align 8
  %5 = alloca ptr, align 8
  %6 = alloca ptr, align 8
  store ptr %0, ptr %4, align 8
  store ptr %1, ptr %5, align 8
  store ptr %2, ptr %6, align 8
  %7 = load ptr, ptr %4, align 8
  %8 = getelementptr inbounds %struct.H5F_t, ptr %7, i32 0, i32 2
  %9 = load ptr, ptr %8, align 8
  %10 = getelementptr inbounds %struct.H5F_shared_t, ptr %9, i32 0, i32 8
  %11 = load i8, ptr %10, align 8
  %12 = zext i8 %11 to i64
  %13 = load ptr, ptr %5, align 8
  %14 = load ptr, ptr %6, align 8
  call void @H5F_addr_decode_len(i64 noundef %12, ptr noundef %13, ptr noundef %14)
  ret void
}