; Function Attrs: nofree norecurse nosync nounwind memory(read, argmem: readwrite, inaccessiblemem: none) uwtable
define void @H5F_addr_decode(ptr nocapture noundef readonly %0, ptr nocapture noundef %1, ptr nocapture noundef %2) local_unnamed_addr #9 {
  %4 = getelementptr inbounds i8, ptr %0, i64 16
  %5 = load ptr, ptr %4, align 8
  %6 = getelementptr inbounds i8, ptr %5, i64 64
  %7 = load i8, ptr %6, align 8
  store i64 0, ptr %2, align 8
  %.not18.i = icmp eq i8 %7, 0
  br i1 %.not18.i, label %.critedge.i, label %.lr.ph.i.preheader

.lr.ph.i.preheader:                               ; preds = %3
  %wide.trip.count = zext i8 %7 to i64
  br label %.lr.ph.i

.lr.ph.i:                                         ; preds = %.lr.ph.i.preheader, %18
  %indvars.iv = phi i64 [ 0, %.lr.ph.i.preheader ], [ %indvars.iv.next, %18 ]
  %.017.i = phi i1 [ true, %.lr.ph.i.preheader ], [ %spec.select.i, %18 ]
  %8 = load ptr, ptr %1, align 8
  %9 = getelementptr inbounds i8, ptr %8, i64 1
  store ptr %9, ptr %1, align 8
  %10 = load i8, ptr %8, align 1
  %.not.i = icmp eq i8 %10, -1
  %spec.select.i = select i1 %.not.i, i1 %.017.i, i1 false
  %11 = icmp ult i64 %indvars.iv, 8
  br i1 %11, label %12, label %18

12:                                               ; preds = %.lr.ph.i
  %13 = zext i8 %10 to i64
  %14 = shl nuw nsw i64 %indvars.iv, 3
  %15 = shl nuw i64 %13, %14
  %16 = load i64, ptr %2, align 8
  %17 = or i64 %16, %15
  store i64 %17, ptr %2, align 8
  br label %18

18:                                               ; preds = %12, %.lr.ph.i
  %indvars.iv.next = add nuw nsw i64 %indvars.iv, 1
  %exitcond.not = icmp eq i64 %indvars.iv.next, %wide.trip.count
  br i1 %exitcond.not, label %._crit_edge.i, label %.lr.ph.i

._crit_edge.i:                                    ; preds = %18
  br i1 %spec.select.i, label %.critedge.i, label %H5F_addr_decode_len.exit

.critedge.i:                                      ; preds = %._crit_edge.i, %3
  store i64 -1, ptr %2, align 8
  br label %H5F_addr_decode_len.exit

H5F_addr_decode_len.exit:                         ; preds = %._crit_edge.i, %.critedge.i
  ret void
}